; Function Attrs: nounwind uwtable
define internal fastcc range(i32 -1094995529, 1) i32 @set_bps_params(ptr noundef %0) unnamed_addr #2 {
  %2 = getelementptr inbounds nuw i8, ptr %0, i64 652
  %3 = load i32, ptr %2, align 4, !tbaa !35
  switch i32 %3, label %10 [
    i32 8, label %4
    i32 16, label %6
    i32 24, label %8
  ]

4:                                                ; preds = %1
  %5 = getelementptr inbounds nuw i8, ptr %0, i64 348
  store i32 5, ptr %5, align 4, !tbaa !91
  br label %11

6:                                                ; preds = %1
  %7 = getelementptr inbounds nuw i8, ptr %0, i64 348
  store i32 6, ptr %7, align 4, !tbaa !91
  br label %11

8:                                                ; preds = %1
  %9 = getelementptr inbounds nuw i8, ptr %0, i64 348
  store i32 7, ptr %9, align 4, !tbaa !91
  br label %11

10:                                               ; preds = %1
  tail call void (ptr, i32, ptr, ...) @av_log(ptr noundef nonnull %0, i32 noundef 16, ptr noundef nonnull @.str.2, i32 noundef %3) #12
  br label %11

11:                                               ; preds = %4, %6, %8, %10
  %.0 = phi i32 [ -1094995529, %10 ], [ 0, %8 ], [ 0, %6 ], [ 0, %4 ]
  ret i32 %.0
}